; Function Attrs: nounwind uwtable
define internal ptr @sapi_cli_server_read_cookies() #0 {
  %1 = load ptr, ptr @sapi_globals, align 8, !tbaa !44
  %2 = getelementptr inbounds nuw i8, ptr %1, i64 192
  %3 = tail call ptr @zend_hash_str_find(ptr noundef nonnull %2, ptr noundef nonnull @.str.83, i64 noundef 6) #29
  %4 = icmp eq ptr %3, null
  br i1 %4, label %8, label %5

5:                                                ; preds = %0
  %6 = load ptr, ptr %3, align 8, !tbaa !4
  %7 = getelementptr inbounds nuw i8, ptr %6, i64 24
  br label %8

8:                                                ; preds = %0, %5
  %.0 = phi ptr [ %7, %5 ], [ null, %0 ]
  ret ptr %.0
}